target datalayout = "e-m:e-p270:32:32-p271:32:32-p272:64:64-i64:64-i128:128-f80:128-n8:16:32:64-S128"
target triple = "x86_64-pc-linux-gnu"

%"class.icu_77::Calendar" = type <{ %"class.icu_77::UObject", [24 x i32], [24 x i8], i8, [7 x i8], double, ptr, i8, i16, i8, i32, i32, i32, i8, i8, i16, [4 x i8], ptr, ptr }>
%"class.icu_77::UObject" = type { ptr }
%"class.icu_77::CalendarAstronomer" = type <{ double, double, double, double, double, %"class.icu_77::CalendarAstronomer::Equatorial", i8, [7 x i8] }>
%"class.icu_77::CalendarAstronomer::Equatorial" = type { double, double }

@_ZN6icu_7718CalendarAstronomer13SYNODIC_MONTHE = external constant double, align 8
@_ZN6icu_7718CalendarAstronomer2PIE = external constant double, align 8

; Function Attrs: inlinehint mustprogress nounwind uwtable
define linkonce_odr void @_ZN6icu_778Calendar11internalSetE19UCalendarDateFieldsi(ptr noundef nonnull align 8 dereferenceable(192) %0, i32 noundef %1, i32 noundef %2) #4 comdat align 2 {
  %4 = alloca ptr, align 8
  %5 = alloca i32, align 4
  %6 = alloca i32, align 4
  store ptr %0, ptr %4, align 8, !tbaa !29
  store i32 %1, ptr %5, align 4, !tbaa !13
  store i32 %2, ptr %6, align 4, !tbaa !17
  %7 = load ptr, ptr %4, align 8
  %8 = load i32, ptr %6, align 4, !tbaa !17
  %9 = getelementptr inbounds nuw %"class.icu_77::Calendar", ptr %7, i32 0, i32 1
  %10 = load i32, ptr %5, align 4, !tbaa !13
  %11 = zext i32 %10 to i64
  %12 = getelementptr inbounds nuw [24 x i32], ptr %9, i64 0, i64 %11
  store i32 %8, ptr %12, align 4, !tbaa !17
  %13 = getelementptr inbounds nuw %"class.icu_77::Calendar", ptr %7, i32 0, i32 2
  %14 = load i32, ptr %5, align 4, !tbaa !13
  %15 = zext i32 %14 to i64
  %16 = getelementptr inbounds nuw [24 x i8], ptr %13, i64 0, i64 %15
  store i8 1, ptr %16, align 1, !tbaa !28
  ret void
}

; Function Attrs: mustprogress uwtable
define internal noundef double @_ZN6icu_7712_GLOBAL__N_17moonAgeEd(double noundef %0) #1 personality ptr @__gxx_personality_v0 {
  %2 = alloca double, align 8
  %3 = alloca double, align 8
  %4 = alloca %"class.icu_77::CalendarAstronomer", align 8
  %5 = alloca ptr, align 8
  %6 = alloca i32, align 4
  store double %0, ptr %2, align 8, !tbaa !23
  call void @llvm.lifetime.start.p0(i64 8, ptr %3) #8
  call void @llvm.lifetime.start.p0(i64 64, ptr %4) #8
  %7 = load double, ptr %2, align 8, !tbaa !23
  call void @_ZN6icu_7718CalendarAstronomerC1Ed(ptr noundef nonnull align 8 dereferenceable(57) %4, double noundef %7)
  %8 = invoke noundef double @_ZN6icu_7718CalendarAstronomer10getMoonAgeEv(ptr noundef nonnull align 8 dereferenceable(57) %4)
          to label %9 unwind label %18

9:                                                ; preds = %1
  %10 = fmul double %8, 1.800000e+02
  %11 = load double, ptr @_ZN6icu_7718CalendarAstronomer2PIE, align 8, !tbaa !23
  %12 = fdiv double %10, %11
  call void @_ZN6icu_7718CalendarAstronomerD1Ev(ptr noundef nonnull align 8 dereferenceable(57) %4) #8
  call void @llvm.lifetime.end.p0(i64 64, ptr %4) #8
  store double %12, ptr %3, align 8, !tbaa !23
  %13 = load double, ptr %3, align 8, !tbaa !23
  %14 = fcmp ogt double %13, 1.800000e+02
  br i1 %14, label %15, label %22

15:                                               ; preds = %9
  %16 = load double, ptr %3, align 8, !tbaa !23
  %17 = fsub double %16, 3.600000e+02
  store double %17, ptr %3, align 8, !tbaa !23
  br label %22

18:                                               ; preds = %1
  %19 = landingpad { ptr, i32 }
          cleanup
  %20 = extractvalue { ptr, i32 } %19, 0
  store ptr %20, ptr %5, align 8
  %21 = extractvalue { ptr, i32 } %19, 1
  store i32 %21, ptr %6, align 4
  call void @_ZN6icu_7718CalendarAstronomerD1Ev(ptr noundef nonnull align 8 dereferenceable(57) %4) #8
  call void @llvm.lifetime.end.p0(i64 64, ptr %4) #8
  call void @llvm.lifetime.end.p0(i64 8, ptr %3) #8
  br label %24

22:                                               ; preds = %15, %9
  %23 = load double, ptr %3, align 8, !tbaa !23
  call void @llvm.lifetime.end.p0(i64 8, ptr %3) #8
  ret double %23

24:                                               ; preds = %18
  %25 = load ptr, ptr %5, align 8
  %26 = load i32, ptr %6, align 4
  %27 = insertvalue { ptr, i32 } poison, ptr %25, 0
  %28 = insertvalue { ptr, i32 } %27, i32 %26, 1
  resume { ptr, i32 } %28
}

; Function Attrs: mustprogress nounwind uwtable
define linkonce_odr noundef double @_ZNK6icu_778Calendar15internalGetTimeEv(ptr noundef nonnull align 8 dereferenceable(192) %0) #0 comdat align 2 {
  %2 = alloca ptr, align 8
  store ptr %0, ptr %2, align 8, !tbaa !29
  %3 = load ptr, ptr %2, align 8
  %4 = getelementptr inbounds nuw %"class.icu_77::Calendar", ptr %3, i32 0, i32 5
  %5 = load double, ptr %4, align 8, !tbaa !32
  ret double %5
}

; Function Attrs: inlinehint mustprogress nounwind uwtable
define internal noundef signext i8 @_ZL9U_FAILURE10UErrorCode(i32 noundef %0) #4 {
  %2 = alloca i32, align 4
  store i32 %0, ptr %2, align 4, !tbaa !19
  %3 = load i32, ptr %2, align 4, !tbaa !19
  %4 = icmp sgt i32 %3, 0
  %5 = zext i1 %4 to i8
  ret i8 %5
}

; Function Attrs: mustprogress uwtable
define void @_ZN6icu_7715IslamicCalendar19handleComputeFieldsEiR10UErrorCode(ptr noundef nonnull align 8 dereferenceable(192) %0, i32 noundef %1, ptr noundef nonnull align 4 dereferenceable(4) %2) unnamed_addr #1 align 2 {
  %4 = alloca ptr, align 8
  %5 = alloca i32, align 4
  %6 = alloca ptr, align 8
  %7 = alloca i32, align 4
  %8 = alloca i32, align 4
  %9 = alloca i32, align 4
  %10 = alloca double, align 8
  %11 = alloca i32, align 4
  %12 = alloca i32, align 4
  %13 = alloca i64, align 8
  %14 = alloca i64, align 8
  store ptr %0, ptr %4, align 8, !tbaa !3
  store i32 %1, ptr %5, align 4, !tbaa !17
  store ptr %2, ptr %6, align 8, !tbaa !12
  %15 = load ptr, ptr %4, align 8
  %16 = load ptr, ptr %6, align 8, !tbaa !12
  %17 = load i32, ptr %16, align 4, !tbaa !19
  %18 = call noundef signext i8 @_ZL9U_FAILURE10UErrorCode(i32 noundef %17)
  %19 = icmp ne i8 %18, 0
  br i1 %19, label %20, label %21

20:                                               ; preds = %3
  br label %152

21:                                               ; preds = %3
  call void @llvm.lifetime.start.p0(i64 4, ptr %7) #8
  %22 = load i32, ptr %5, align 4, !tbaa !17
  %23 = load ptr, ptr %15, align 8, !tbaa !8
  %24 = getelementptr inbounds ptr, ptr %23, i64 58
  %25 = load ptr, ptr %24, align 8
  %26 = call noundef i32 %25(ptr noundef nonnull align 8 dereferenceable(192) %15)
  %27 = sub nsw i32 %22, %26
  store i32 %27, ptr %7, align 4, !tbaa !17
  call void @llvm.lifetime.start.p0(i64 4, ptr %8) #8
  %28 = load i32, ptr %7, align 4, !tbaa !17
  %29 = sitofp i32 %28 to double
  %30 = load double, ptr @_ZN6icu_7718CalendarAstronomer13SYNODIC_MONTHE, align 8, !tbaa !23
  %31 = fdiv double %29, %30
  %32 = call double @uprv_floor_77(double noundef %31)
  %33 = fptosi double %32 to i32
  store i32 %33, ptr %8, align 4, !tbaa !17
  call void @llvm.lifetime.start.p0(i64 4, ptr %9) #8
  %34 = load i32, ptr %8, align 4, !tbaa !17
  %35 = sitofp i32 %34 to double
  %36 = load double, ptr @_ZN6icu_7718CalendarAstronomer13SYNODIC_MONTHE, align 8, !tbaa !23
  %37 = fmul double %35, %36
  %38 = call double @uprv_floor_77(double noundef %37)
  %39 = fptosi double %38 to i32
  store i32 %39, ptr %9, align 4, !tbaa !17
  call void @llvm.lifetime.start.p0(i64 8, ptr %10) #8
  %40 = call noundef double @_ZNK6icu_778Calendar15internalGetTimeEv(ptr noundef nonnull align 8 dereferenceable(192) %15)
  %41 = call noundef double @_ZN6icu_7712_GLOBAL__N_17moonAgeEd(double noundef %40)
  store double %41, ptr %10, align 8, !tbaa !23
  %42 = load i32, ptr %7, align 4, !tbaa !17
  %43 = load i32, ptr %9, align 4, !tbaa !17
  %44 = sub nsw i32 %42, %43
  %45 = icmp sge i32 %44, 25
  br i1 %45, label %46, label %52

46:                                               ; preds = %21
  %47 = load double, ptr %10, align 8, !tbaa !23
  %48 = fcmp ogt double %47, 0.000000e+00
  br i1 %48, label %49, label %52

49:                                               ; preds = %46
  %50 = load i32, ptr %8, align 4, !tbaa !17
  %51 = add nsw i32 %50, 1
  store i32 %51, ptr %8, align 4, !tbaa !17
  br label %52

52:                                               ; preds = %49, %46, %21
  br label %53

53:                                               ; preds = %65, %52
  %54 = load i32, ptr %8, align 4, !tbaa !17
  %55 = load ptr, ptr %6, align 8, !tbaa !12
  %56 = call noundef i32 @_ZN6icu_7712_GLOBAL__N_114trueMonthStartEiR10UErrorCode(i32 noundef %54, ptr noundef nonnull align 4 dereferenceable(4) %55)
  store i32 %56, ptr %9, align 4, !tbaa !17
  %57 = load i32, ptr %7, align 4, !tbaa !17
  %58 = icmp sgt i32 %56, %57
  br i1 %58, label %59, label %68

59:                                               ; preds = %53
  %60 = load ptr, ptr %6, align 8, !tbaa !12
  %61 = load i32, ptr %60, align 4, !tbaa !19
  %62 = call noundef signext i8 @_ZL9U_FAILURE10UErrorCode(i32 noundef %61)
  %63 = icmp ne i8 %62, 0
  br i1 %63, label %64, label %65

64:                                               ; preds = %59
  store i32 1, ptr %11, align 4
  br label %150

65:                                               ; preds = %59
  %66 = load i32, ptr %8, align 4, !tbaa !17
  %67 = add nsw i32 %66, -1
  store i32 %67, ptr %8, align 4, !tbaa !17
  br label %53, !llvm.loop !31

68:                                               ; preds = %53
  %69 = load ptr, ptr %6, align 8, !tbaa !12
  %70 = load i32, ptr %69, align 4, !tbaa !19
  %71 = call noundef signext i8 @_ZL9U_FAILURE10UErrorCode(i32 noundef %70)
  %72 = icmp ne i8 %71, 0
  br i1 %72, label %73, label %74

73:                                               ; preds = %68
  store i32 1, ptr %11, align 4
  br label %150

74:                                               ; preds = %68
  call void @llvm.lifetime.start.p0(i64 4, ptr %12) #8
  %75 = load i32, ptr %8, align 4, !tbaa !17
  %76 = icmp sge i32 %75, 0
  br i1 %76, label %77, label %81

77:                                               ; preds = %74
  %78 = load i32, ptr %8, align 4, !tbaa !17
  %79 = sdiv i32 %78, 12
  %80 = add nsw i32 %79, 1
  br label %85

81:                                               ; preds = %74
  %82 = load i32, ptr %8, align 4, !tbaa !17
  %83 = add nsw i32 %82, 1
  %84 = sdiv i32 %83, 12
  br label %85

85:                                               ; preds = %81, %77
  %86 = phi i32 [ %80, %77 ], [ %84, %81 ]
  store i32 %86, ptr %12, align 4, !tbaa !17
  %87 = load i32, ptr %8, align 4, !tbaa !17
  %88 = srem i32 %87, 12
  %89 = add nsw i32 %88, 12
  %90 = srem i32 %89, 12
  store i32 %90, ptr %8, align 4, !tbaa !17
  call void @llvm.lifetime.start.p0(i64 8, ptr %13) #8
  %91 = load i32, ptr %7, align 4, !tbaa !17
  %92 = sext i32 %91 to i64
  %93 = load i32, ptr %12, align 4, !tbaa !17
  %94 = load i32, ptr %8, align 4, !tbaa !17
  %95 = load ptr, ptr %6, align 8, !tbaa !12
  %96 = load ptr, ptr %15, align 8, !tbaa !8
  %97 = getelementptr inbounds ptr, ptr %96, i64 57
  %98 = load ptr, ptr %97, align 8
  %99 = call noundef i64 %98(ptr noundef nonnull align 8 dereferenceable(192) %15, i32 noundef %93, i32 noundef %94, ptr noundef nonnull align 4 dereferenceable(4) %95)
  %100 = sub nsw i64 %92, %99
  %101 = add nsw i64 %100, 1
  store i64 %101, ptr %13, align 8, !tbaa !21
  %102 = load ptr, ptr %6, align 8, !tbaa !12
  %103 = load i32, ptr %102, align 4, !tbaa !19
  %104 = call noundef signext i8 @_ZL9U_FAILURE10UErrorCode(i32 noundef %103)
  %105 = icmp ne i8 %104, 0
  br i1 %105, label %106, label %107

106:                                              ; preds = %85
  store i32 1, ptr %11, align 4
  br label %149

107:                                              ; preds = %85
  %108 = load i64, ptr %13, align 8, !tbaa !21
  %109 = icmp sgt i64 %108, 2147483647
  br i1 %109, label %113, label %110

110:                                              ; preds = %107
  %111 = load i64, ptr %13, align 8, !tbaa !21
  %112 = icmp slt i64 %111, -2147483648
  br i1 %112, label %113, label %115

113:                                              ; preds = %110, %107
  %114 = load ptr, ptr %6, align 8, !tbaa !12
  store i32 1, ptr %114, align 4, !tbaa !19
  store i32 1, ptr %11, align 4
  br label %149

115:                                              ; preds = %110
  call void @llvm.lifetime.start.p0(i64 8, ptr %14) #8
  %116 = load i32, ptr %7, align 4, !tbaa !17
  %117 = sext i32 %116 to i64
  %118 = load i32, ptr %12, align 4, !tbaa !17
  %119 = load ptr, ptr %6, align 8, !tbaa !12
  %120 = load ptr, ptr %15, align 8, !tbaa !8
  %121 = getelementptr inbounds ptr, ptr %120, i64 57
  %122 = load ptr, ptr %121, align 8
  %123 = call noundef i64 %122(ptr noundef nonnull align 8 dereferenceable(192) %15, i32 noundef %118, i32 noundef 0, ptr noundef nonnull align 4 dereferenceable(4) %119)
  %124 = sub nsw i64 %117, %123
  %125 = add nsw i64 %124, 1
  store i64 %125, ptr %14, align 8, !tbaa !21
  %126 = load ptr, ptr %6, align 8, !tbaa !12
  %127 = load i32, ptr %126, align 4, !tbaa !19
  %128 = call noundef signext i8 @_ZL9U_FAILURE10UErrorCode(i32 noundef %127)
  %129 = icmp ne i8 %128, 0
  br i1 %129, label %130, label %131

130:                                              ; preds = %115
  store i32 1, ptr %11, align 4
  br label %148

131:                                              ; preds = %115
  %132 = load i64, ptr %14, align 8, !tbaa !21
  %133 = icmp sgt i64 %132, 2147483647
  br i1 %133, label %137, label %134

134:                                              ; preds = %131
  %135 = load i64, ptr %14, align 8, !tbaa !21
  %136 = icmp slt i64 %135, -2147483648
  br i1 %136, label %137, label %139

137:                                              ; preds = %134, %131
  %138 = load ptr, ptr %6, align 8, !tbaa !12
  store i32 1, ptr %138, align 4, !tbaa !19
  store i32 1, ptr %11, align 4
  br label %148

139:                                              ; preds = %134
  call void @_ZN6icu_778Calendar11internalSetE19UCalendarDateFieldsi(ptr noundef nonnull align 8 dereferenceable(192) %15, i32 noundef 0, i32 noundef 0)
  %140 = load i32, ptr %12, align 4, !tbaa !17
  call void @_ZN6icu_778Calendar11internalSetE19UCalendarDateFieldsi(ptr noundef nonnull align 8 dereferenceable(192) %15, i32 noundef 1, i32 noundef %140)
  %141 = load i32, ptr %12, align 4, !tbaa !17
  call void @_ZN6icu_778Calendar11internalSetE19UCalendarDateFieldsi(ptr noundef nonnull align 8 dereferenceable(192) %15, i32 noundef 19, i32 noundef %141)
  %142 = load i32, ptr %8, align 4, !tbaa !17
  call void @_ZN6icu_778Calendar11internalSetE19UCalendarDateFieldsi(ptr noundef nonnull align 8 dereferenceable(192) %15, i32 noundef 2, i32 noundef %142)
  %143 = load i32, ptr %8, align 4, !tbaa !17
  call void @_ZN6icu_778Calendar11internalSetE19UCalendarDateFieldsi(ptr noundef nonnull align 8 dereferenceable(192) %15, i32 noundef 23, i32 noundef %143)
  %144 = load i64, ptr %13, align 8, !tbaa !21
  %145 = trunc i64 %144 to i32
  call void @_ZN6icu_778Calendar11internalSetE19UCalendarDateFieldsi(ptr noundef nonnull align 8 dereferenceable(192) %15, i32 noundef 5, i32 noundef %145)
  %146 = load i64, ptr %14, align 8, !tbaa !21
  %147 = trunc i64 %146 to i32
  call void @_ZN6icu_778Calendar11internalSetE19UCalendarDateFieldsi(ptr noundef nonnull align 8 dereferenceable(192) %15, i32 noundef 6, i32 noundef %147)
  store i32 0, ptr %11, align 4
  br label %148

148:                                              ; preds = %139, %137, %130
  call void @llvm.lifetime.end.p0(i64 8, ptr %14) #8
  br label %149

149:                                              ; preds = %148, %113, %106
  call void @llvm.lifetime.end.p0(i64 8, ptr %13) #8
  call void @llvm.lifetime.end.p0(i64 4, ptr %12) #8
  br label %150

150:                                              ; preds = %149, %73, %64
  call void @llvm.lifetime.end.p0(i64 8, ptr %10) #8
  call void @llvm.lifetime.end.p0(i64 4, ptr %9) #8
  call void @llvm.lifetime.end.p0(i64 4, ptr %8) #8
  call void @llvm.lifetime.end.p0(i64 4, ptr %7) #8
  %151 = load i32, ptr %11, align 4
  switch i32 %151, label %153 [
    i32 0, label %152
    i32 1, label %152
  ]

152:                                              ; preds = %20, %150, %150
  ret void

153:                                              ; preds = %150
  unreachable
}