; Function Attrs: mustprogress uwtable
define void @_ZN6icu_7715IslamicCalendar19handleComputeFieldsEiR10UErrorCode(ptr noundef nonnull align 8 dereferenceable(192) %0, i32 noundef %1, ptr noundef nonnull align 4 dereferenceable(4) %2) unnamed_addr #1 align 2 personality ptr @__gxx_personality_v0 {
  %4 = alloca %"class.icu_77::CalendarAstronomer", align 8
  %5 = load i32, ptr %2, align 4, !tbaa !9
  %6 = icmp slt i32 %5, 1
  br i1 %6, label %7, label %.loopexit

7:                                                ; preds = %3
  %8 = load ptr, ptr %0, align 8, !tbaa !3
  %9 = getelementptr inbounds nuw i8, ptr %8, i64 464
  %10 = load ptr, ptr %9, align 8
  %11 = tail call noundef i32 %10(ptr noundef nonnull align 8 dereferenceable(192) %0)
  %12 = sub nsw i32 %1, %11
  %13 = sitofp i32 %12 to double
  %14 = load double, ptr @_ZN6icu_7718CalendarAstronomer13SYNODIC_MONTHE, align 8, !tbaa !11
  %15 = fdiv double %13, %14
  %16 = tail call double @uprv_floor_77(double noundef %15)
  %17 = fptosi double %16 to i32
  %18 = sitofp i32 %17 to double
  %19 = fmul double %14, %18
  %20 = tail call double @uprv_floor_77(double noundef %19)
  %21 = getelementptr inbounds nuw i8, ptr %0, i64 136
  %22 = load double, ptr %21, align 8, !tbaa !17
  call void @llvm.lifetime.start.p0(i64 64, ptr nonnull %4) #10
  call void @_ZN6icu_7718CalendarAstronomerC1Ed(ptr noundef nonnull align 8 dereferenceable(57) %4, double noundef %22)
  %23 = invoke noundef double @_ZN6icu_7718CalendarAstronomer10getMoonAgeEv(ptr noundef nonnull align 8 dereferenceable(57) %4)
          to label %_ZN6icu_7712_GLOBAL__N_17moonAgeEd.exit unwind label %24

24:                                               ; preds = %7
  %25 = landingpad { ptr, i32 }
          cleanup
  call void @_ZN6icu_7718CalendarAstronomerD1Ev(ptr noundef nonnull align 8 dereferenceable(57) %4) #10
  call void @llvm.lifetime.end.p0(i64 64, ptr nonnull %4) #10
  resume { ptr, i32 } %25

_ZN6icu_7712_GLOBAL__N_17moonAgeEd.exit:          ; preds = %7
  %26 = fptosi double %20 to i32
  %27 = fmul double %23, 1.800000e+02
  %28 = load double, ptr @_ZN6icu_7718CalendarAstronomer2PIE, align 8, !tbaa !11
  %29 = fdiv double %27, %28
  call void @_ZN6icu_7718CalendarAstronomerD1Ev(ptr noundef nonnull align 8 dereferenceable(57) %4) #10
  call void @llvm.lifetime.end.p0(i64 64, ptr nonnull %4) #10
  %30 = fcmp ogt double %29, 1.800000e+02
  %31 = fadd double %29, -3.600000e+02
  %.0.i = select i1 %30, double %31, double %29
  %32 = sub nsw i32 %12, %26
  %33 = icmp sgt i32 %32, 24
  %34 = fcmp ogt double %.0.i, 0.000000e+00
  %or.cond = and i1 %33, %34
  %35 = zext i1 %or.cond to i32
  %spec.select = add nsw i32 %35, %17
  %36 = call fastcc noundef i32 @_ZN6icu_7712_GLOBAL__N_114trueMonthStartEiR10UErrorCode(i32 noundef %spec.select, ptr noundef nonnull align 4 dereferenceable(4) %2)
  %37 = icmp sgt i32 %36, %12
  br i1 %37, label %.lr.ph, label %._crit_edge

.lr.ph:                                           ; preds = %_ZN6icu_7712_GLOBAL__N_17moonAgeEd.exit, %40
  %.152 = phi i32 [ %41, %40 ], [ %spec.select, %_ZN6icu_7712_GLOBAL__N_17moonAgeEd.exit ]
  %38 = load i32, ptr %2, align 4, !tbaa !9
  %39 = icmp slt i32 %38, 1
  br i1 %39, label %40, label %.loopexit

40:                                               ; preds = %.lr.ph
  %41 = add nsw i32 %.152, -1
  %42 = call fastcc noundef i32 @_ZN6icu_7712_GLOBAL__N_114trueMonthStartEiR10UErrorCode(i32 noundef %41, ptr noundef nonnull align 4 dereferenceable(4) %2)
  %43 = icmp sgt i32 %42, %12
  br i1 %43, label %.lr.ph, label %._crit_edge, !llvm.loop !27

._crit_edge:                                      ; preds = %40, %_ZN6icu_7712_GLOBAL__N_17moonAgeEd.exit
  %.1.lcssa = phi i32 [ %spec.select, %_ZN6icu_7712_GLOBAL__N_17moonAgeEd.exit ], [ %41, %40 ]
  %44 = load i32, ptr %2, align 4, !tbaa !9
  %45 = icmp slt i32 %44, 1
  br i1 %45, label %46, label %.loopexit

46:                                               ; preds = %._crit_edge
  %47 = icmp sgt i32 %.1.lcssa, -1
  br i1 %47, label %48, label %51

48:                                               ; preds = %46
  %49 = udiv i32 %.1.lcssa, 12
  %50 = add nuw nsw i32 %49, 1
  br label %53

51:                                               ; preds = %46
  %.nonneg = xor i32 %.1.lcssa, -1
  %52 = udiv i32 %.nonneg, 12
  %.neg = sub nsw i32 0, %52
  br label %53

53:                                               ; preds = %51, %48
  %54 = phi i32 [ %50, %48 ], [ %.neg, %51 ]
  %55 = srem i32 %.1.lcssa, 12
  %56 = add nsw i32 %55, 12
  %.cmp = icmp slt i32 %55, 0
  %57 = select i1 %.cmp, i32 %56, i32 %55
  %58 = sext i32 %12 to i64
  %59 = load ptr, ptr %0, align 8, !tbaa !3
  %60 = getelementptr inbounds nuw i8, ptr %59, i64 456
  %61 = load ptr, ptr %60, align 8
  %62 = call noundef i64 %61(ptr noundef nonnull align 8 dereferenceable(192) %0, i32 noundef %54, i32 noundef %57, ptr noundef nonnull align 4 dereferenceable(4) %2)
  %63 = sub nsw i64 %58, %62
  %64 = load i32, ptr %2, align 4, !tbaa !9
  %65 = icmp slt i32 %64, 1
  br i1 %65, label %66, label %.loopexit

66:                                               ; preds = %53
  %67 = add i64 %63, -2147483647
  %or.cond3 = icmp ult i64 %67, -4294967296
  br i1 %or.cond3, label %68, label %69

68:                                               ; preds = %66
  store i32 1, ptr %2, align 4, !tbaa !9
  br label %.loopexit

69:                                               ; preds = %66
  %70 = load ptr, ptr %0, align 8, !tbaa !3
  %71 = getelementptr inbounds nuw i8, ptr %70, i64 456
  %72 = load ptr, ptr %71, align 8
  %73 = call noundef i64 %72(ptr noundef nonnull align 8 dereferenceable(192) %0, i32 noundef %54, i32 noundef 0, ptr noundef nonnull align 4 dereferenceable(4) %2)
  %74 = sub nsw i64 %58, %73
  %75 = load i32, ptr %2, align 4, !tbaa !9
  %76 = icmp slt i32 %75, 1
  br i1 %76, label %77, label %.loopexit

77:                                               ; preds = %69
  %78 = add i64 %74, -2147483647
  %or.cond5 = icmp ult i64 %78, -4294967296
  br i1 %or.cond5, label %79, label %80

79:                                               ; preds = %77
  store i32 1, ptr %2, align 4, !tbaa !9
  br label %.loopexit

80:                                               ; preds = %77
  %81 = getelementptr inbounds nuw i8, ptr %0, i64 8
  store i32 0, ptr %81, align 8, !tbaa !6
  %82 = getelementptr inbounds nuw i8, ptr %0, i64 104
  store i8 1, ptr %82, align 8, !tbaa !16
  %83 = getelementptr inbounds nuw i8, ptr %0, i64 12
  store i32 %54, ptr %83, align 4, !tbaa !6
  %84 = getelementptr inbounds nuw i8, ptr %0, i64 105
  store i8 1, ptr %84, align 1, !tbaa !16
  %85 = getelementptr inbounds nuw i8, ptr %0, i64 84
  store i32 %54, ptr %85, align 4, !tbaa !6
  %86 = getelementptr inbounds nuw i8, ptr %0, i64 123
  store i8 1, ptr %86, align 1, !tbaa !16
  %87 = getelementptr inbounds nuw i8, ptr %0, i64 16
  store i32 %57, ptr %87, align 8, !tbaa !6
  %88 = getelementptr inbounds nuw i8, ptr %0, i64 106
  store i8 1, ptr %88, align 2, !tbaa !16
  %89 = getelementptr inbounds nuw i8, ptr %0, i64 100
  store i32 %57, ptr %89, align 4, !tbaa !6
  %90 = getelementptr inbounds nuw i8, ptr %0, i64 127
  store i8 1, ptr %90, align 1, !tbaa !16
  %91 = trunc i64 %63 to i32
  %92 = add i32 %91, 1
  %93 = getelementptr inbounds nuw i8, ptr %0, i64 28
  store i32 %92, ptr %93, align 4, !tbaa !6
  %94 = getelementptr inbounds nuw i8, ptr %0, i64 109
  store i8 1, ptr %94, align 1, !tbaa !16
  %95 = trunc i64 %74 to i32
  %96 = add i32 %95, 1
  %97 = getelementptr inbounds nuw i8, ptr %0, i64 32
  store i32 %96, ptr %97, align 8, !tbaa !6
  %98 = getelementptr inbounds nuw i8, ptr %0, i64 110
  store i8 1, ptr %98, align 2, !tbaa !16
  br label %.loopexit

.loopexit:                                        ; preds = %.lr.ph, %._crit_edge, %79, %80, %69, %53, %68, %3
  ret void
}